; Function Attrs: mustprogress uwtable
define void @_ZN32pxrInternal_v0_24__pxrReserved__8SdfLayer3NewERKNS_9TfWeakPtrIKNS_13SdfFileFormatEEERKNSt7__cxx1112basic_stringIcSt11char_traitsIcESaIcEEERKSt3mapISC_SC_St4lessISC_ESaISt4pairISD_SC_EEE(ptr dead_on_unwind noalias writable writeonly sret(%"class.pxrInternal_v0_24__pxrReserved__::TfRefPtr.149") align 8 captures(none) %0, ptr noundef nonnull readonly align 8 captures(none) dereferenceable(16) %1, ptr noundef nonnull align 8 dereferenceable(32) %2, ptr noundef nonnull align 8 dereferenceable(48) %3) local_unnamed_addr #3 align 2 personality ptr @__gxx_personality_v0 {
  %5 = alloca %"class.pxrInternal_v0_24__pxrReserved__::TfWeakPtr.2", align 8
  %6 = load ptr, ptr %1, align 8
  store ptr %6, ptr %5, align 8
  %7 = getelementptr inbounds nuw i8, ptr %5, i64 8
  %8 = getelementptr inbounds nuw i8, ptr %1, i64 8
  %9 = load ptr, ptr %8, align 8
  store ptr %9, ptr %7, align 8
  %.not.i.i.i.i = icmp eq ptr %9, null
  br i1 %.not.i.i.i.i, label %_ZN32pxrInternal_v0_24__pxrReserved__9TfWeakPtrIKNS_13SdfFileFormatEEC2ERKS3_.exit, label %10

10:                                               ; preds = %4
  %11 = getelementptr inbounds nuw i8, ptr %9, i64 8
  %12 = atomicrmw add ptr %11, i32 1 monotonic, align 4
  br label %_ZN32pxrInternal_v0_24__pxrReserved__9TfWeakPtrIKNS_13SdfFileFormatEEC2ERKS3_.exit

_ZN32pxrInternal_v0_24__pxrReserved__9TfWeakPtrIKNS_13SdfFileFormatEEC2ERKS3_.exit: ; preds = %4, %10
  invoke void @_ZN32pxrInternal_v0_24__pxrReserved__8SdfLayer10_CreateNewENS_9TfWeakPtrIKNS_13SdfFileFormatEEERKNSt7__cxx1112basic_stringIcSt11char_traitsIcESaIcEEERKSt3mapISA_SA_St4lessISA_ESaISt4pairISB_SA_EEEb(ptr dead_on_unwind writable sret(%"class.pxrInternal_v0_24__pxrReserved__::TfRefPtr.149") align 8 %0, ptr noundef nonnull %5, ptr noundef nonnull align 8 dereferenceable(32) %2, ptr noundef nonnull align 8 dereferenceable(48) %3, i1 noundef zeroext false)
          to label %13 unwind label %22

13:                                               ; preds = %_ZN32pxrInternal_v0_24__pxrReserved__9TfWeakPtrIKNS_13SdfFileFormatEEC2ERKS3_.exit
  %14 = load ptr, ptr %7, align 8
  %.not.i.i.i.i4 = icmp eq ptr %14, null
  br i1 %.not.i.i.i.i4, label %_ZN32pxrInternal_v0_24__pxrReserved__9TfWeakPtrIKNS_13SdfFileFormatEED2Ev.exit, label %_ZN32pxrInternal_v0_24__pxrReserved__17Tf_RefPtr_Counter9RemoveRefEPKNS_9TfRefBaseE.exit.i.i.i

_ZN32pxrInternal_v0_24__pxrReserved__17Tf_RefPtr_Counter9RemoveRefEPKNS_9TfRefBaseE.exit.i.i.i: ; preds = %13
  %15 = getelementptr inbounds nuw i8, ptr %14, i64 8
  %16 = atomicrmw sub ptr %15, i32 1 release, align 4
  %17 = icmp eq i32 %16, 1
  br i1 %17, label %18, label %_ZN32pxrInternal_v0_24__pxrReserved__9TfWeakPtrIKNS_13SdfFileFormatEED2Ev.exit

18:                                               ; preds = %_ZN32pxrInternal_v0_24__pxrReserved__17Tf_RefPtr_Counter9RemoveRefEPKNS_9TfRefBaseE.exit.i.i.i
  %19 = load ptr, ptr %14, align 8
  %20 = getelementptr inbounds nuw i8, ptr %19, i64 8
  %21 = load ptr, ptr %20, align 8
  call void %21(ptr noundef nonnull align 8 dereferenceable(12) %14) #33
  br label %_ZN32pxrInternal_v0_24__pxrReserved__9TfWeakPtrIKNS_13SdfFileFormatEED2Ev.exit

_ZN32pxrInternal_v0_24__pxrReserved__9TfWeakPtrIKNS_13SdfFileFormatEED2Ev.exit: ; preds = %13, %_ZN32pxrInternal_v0_24__pxrReserved__17Tf_RefPtr_Counter9RemoveRefEPKNS_9TfRefBaseE.exit.i.i.i, %18
  ret void

22:                                               ; preds = %_ZN32pxrInternal_v0_24__pxrReserved__9TfWeakPtrIKNS_13SdfFileFormatEEC2ERKS3_.exit
  %23 = landingpad { ptr, i32 }
          cleanup
  %24 = load ptr, ptr %7, align 8
  %.not.i.i.i.i5 = icmp eq ptr %24, null
  br i1 %.not.i.i.i.i5, label %_ZN32pxrInternal_v0_24__pxrReserved__9TfWeakPtrIKNS_13SdfFileFormatEED2Ev.exit7, label %_ZN32pxrInternal_v0_24__pxrReserved__17Tf_RefPtr_Counter9RemoveRefEPKNS_9TfRefBaseE.exit.i.i.i6

_ZN32pxrInternal_v0_24__pxrReserved__17Tf_RefPtr_Counter9RemoveRefEPKNS_9TfRefBaseE.exit.i.i.i6: ; preds = %22
  %25 = getelementptr inbounds nuw i8, ptr %24, i64 8
  %26 = atomicrmw sub ptr %25, i32 1 release, align 4
  %27 = icmp eq i32 %26, 1
  br i1 %27, label %28, label %_ZN32pxrInternal_v0_24__pxrReserved__9TfWeakPtrIKNS_13SdfFileFormatEED2Ev.exit7

28:                                               ; preds = %_ZN32pxrInternal_v0_24__pxrReserved__17Tf_RefPtr_Counter9RemoveRefEPKNS_9TfRefBaseE.exit.i.i.i6
  %29 = load ptr, ptr %24, align 8
  %30 = getelementptr inbounds nuw i8, ptr %29, i64 8
  %31 = load ptr, ptr %30, align 8
  call void %31(ptr noundef nonnull align 8 dereferenceable(12) %24) #33
  br label %_ZN32pxrInternal_v0_24__pxrReserved__9TfWeakPtrIKNS_13SdfFileFormatEED2Ev.exit7

_ZN32pxrInternal_v0_24__pxrReserved__9TfWeakPtrIKNS_13SdfFileFormatEED2Ev.exit7: ; preds = %22, %_ZN32pxrInternal_v0_24__pxrReserved__17Tf_RefPtr_Counter9RemoveRefEPKNS_9TfRefBaseE.exit.i.i.i6, %28
  resume { ptr, i32 } %23
}